target datalayout = "e-m:e-p270:32:32-p271:32:32-p272:64:64-i64:64-i128:128-f80:128-n8:16:32:64-S128"
target triple = "x86_64-pc-linux-gnu"

%struct.H5Z_cb_t = type { ptr, ptr }
%struct.H5T_vlen_alloc_info_t = type { ptr, ptr, ptr, ptr }
%struct.H5T_conv_cb_t = type { ptr, ptr }
%struct.H5CX_dapl_cache_t = type { ptr, ptr }
%struct.H5CX_node_t = type { %struct.H5CX_t, ptr }
%struct.H5CX_t = type { i64, ptr, i64, ptr, i64, ptr, i64, ptr, i64, ptr, i64, ptr, i64, i32, i64, i8, ptr, i8, ptr, i8, i32, i8, [3 x double], i8, i64, i8, i32, i8, %struct.H5Z_cb_t, i8, ptr, i8, %struct.H5T_vlen_alloc_info_t, i8, %struct.H5T_conv_cb_t, i8, i32, i8, i8, i8, i32, i8, i8, i32, i8, i8, i32, i8, i32, i8, i64, i8, i8, i8, i8, i8, ptr, i8, ptr, i8, i32, i8, i32, i8, %struct.H5VL_connector_prop_t, i8, ptr, i8 }
%struct.H5VL_connector_prop_t = type { i64, ptr }

@.str = private unnamed_addr constant [98 x i8] c"generated/home/dtcxzyw/WorkSpace/Projects/compilers/llvm-opt-benchmark/bench/hdf5/hdf5/src/H5CX.c\00", align 1
@H5E_CONTEXT_g = external global i64, align 8
@H5E_BADTYPE_g = external global i64, align 8
@H5E_CANTGET_g = external global i64, align 8
@H5CX_def_dapl_cache = internal global %struct.H5CX_dapl_cache_t zeroinitializer, align 8
@H5P_LST_DATASET_ACCESS_ID_g = external global i64, align 8
@.str.50 = private unnamed_addr constant [11 x i8] c"vds_prefix\00", align 1
@H5CX_head_g = internal global ptr null, align 8
@.str.77 = private unnamed_addr constant [47 x i8] c"can't get default dataset access property list\00", align 1
@__func__.H5CX_get_vds_prefix = private unnamed_addr constant [20 x i8] c"H5CX_get_vds_prefix\00", align 1
@.str.79 = private unnamed_addr constant [26 x i8] c"Can't retrieve VDS prefix\00", align 1

; Function Attrs: nounwind uwtable
define i32 @H5CX_get_vds_prefix(ptr noundef %0) #0 {
  %2 = alloca ptr, align 8
  %3 = alloca ptr, align 8
  %4 = alloca i32, align 4
  %5 = alloca i8, align 1
  store ptr %0, ptr %2, align 8
  store ptr null, ptr %3, align 8
  store i32 0, ptr %4, align 4
  store i8 0, ptr %5, align 1
  store ptr @H5CX_head_g, ptr %3, align 8
  %6 = load ptr, ptr %3, align 8
  %7 = load ptr, ptr %6, align 8
  %8 = getelementptr inbounds %struct.H5CX_node_t, ptr %7, i32 0, i32 0
  %9 = getelementptr inbounds %struct.H5CX_t, ptr %8, i32 0, i32 59
  %10 = load i8, ptr %9, align 8
  %11 = trunc i8 %10 to i1
  br i1 %11, label %94, label %12

12:                                               ; preds = %1
  %13 = load ptr, ptr %3, align 8
  %14 = load ptr, ptr %13, align 8
  %15 = getelementptr inbounds %struct.H5CX_node_t, ptr %14, i32 0, i32 0
  %16 = getelementptr inbounds %struct.H5CX_t, ptr %15, i32 0, i32 8
  %17 = load i64, ptr %16, align 8
  %18 = load i64, ptr @H5P_LST_DATASET_ACCESS_ID_g, align 8
  %19 = icmp eq i64 %17, %18
  br i1 %19, label %20, label %26

20:                                               ; preds = %12
  %21 = load ptr, ptr getelementptr inbounds (%struct.H5CX_dapl_cache_t, ptr @H5CX_def_dapl_cache, i32 0, i32 1), align 8
  %22 = load ptr, ptr %3, align 8
  %23 = load ptr, ptr %22, align 8
  %24 = getelementptr inbounds %struct.H5CX_node_t, ptr %23, i32 0, i32 0
  %25 = getelementptr inbounds %struct.H5CX_t, ptr %24, i32 0, i32 58
  store ptr %21, ptr %25, align 8
  br label %89

26:                                               ; preds = %12
  %27 = load ptr, ptr %3, align 8
  %28 = load ptr, ptr %27, align 8
  %29 = getelementptr inbounds %struct.H5CX_node_t, ptr %28, i32 0, i32 0
  %30 = getelementptr inbounds %struct.H5CX_t, ptr %29, i32 0, i32 9
  %31 = load ptr, ptr %30, align 8
  %32 = icmp eq ptr null, %31
  br i1 %32, label %33, label %61

33:                                               ; preds = %26
  %34 = load ptr, ptr %3, align 8
  %35 = load ptr, ptr %34, align 8
  %36 = getelementptr inbounds %struct.H5CX_node_t, ptr %35, i32 0, i32 0
  %37 = getelementptr inbounds %struct.H5CX_t, ptr %36, i32 0, i32 8
  %38 = load i64, ptr %37, align 8
  %39 = call ptr @H5I_object(i64 noundef %38)
  %40 = load ptr, ptr %3, align 8
  %41 = load ptr, ptr %40, align 8
  %42 = getelementptr inbounds %struct.H5CX_node_t, ptr %41, i32 0, i32 0
  %43 = getelementptr inbounds %struct.H5CX_t, ptr %42, i32 0, i32 9
  store ptr %39, ptr %43, align 8
  %44 = icmp eq ptr null, %39
  br i1 %44, label %45, label %60

45:                                               ; preds = %33
  br label %46

46:                                               ; preds = %45
  br label %47

47:                                               ; preds = %46
  br label %48

48:                                               ; preds = %47
  %49 = load i64, ptr @H5E_CONTEXT_g, align 8
  %50 = load i64, ptr @H5E_BADTYPE_g, align 8
  %51 = call i32 (ptr, ptr, i32, i64, i64, ptr, ...) @H5E_printf_stack(ptr noundef @.str, ptr noundef @__func__.H5CX_get_vds_prefix, i32 noundef 2879, i64 noundef %49, i64 noundef %50, ptr noundef @.str.77)
  br label %52

52:                                               ; preds = %48
  store i8 1, ptr %5, align 1
  %53 = load i8, ptr %5, align 1
  %54 = trunc i8 %53 to i1
  %55 = zext i1 %54 to i8
  store i8 %55, ptr %5, align 1
  br label %56

56:                                               ; preds = %52
  br label %57

57:                                               ; preds = %56
  store i32 -1, ptr %4, align 4
  br label %101

58:                                               ; No predecessors!
  br label %59

59:                                               ; preds = %58
  br label %60

60:                                               ; preds = %59, %33
  br label %61

61:                                               ; preds = %60, %26
  %62 = load ptr, ptr %3, align 8
  %63 = load ptr, ptr %62, align 8
  %64 = getelementptr inbounds %struct.H5CX_node_t, ptr %63, i32 0, i32 0
  %65 = getelementptr inbounds %struct.H5CX_t, ptr %64, i32 0, i32 9
  %66 = load ptr, ptr %65, align 8
  %67 = load ptr, ptr %3, align 8
  %68 = load ptr, ptr %67, align 8
  %69 = getelementptr inbounds %struct.H5CX_node_t, ptr %68, i32 0, i32 0
  %70 = getelementptr inbounds %struct.H5CX_t, ptr %69, i32 0, i32 58
  %71 = call i32 @H5P_peek(ptr noundef %66, ptr noundef @.str.50, ptr noundef %70)
  %72 = icmp slt i32 %71, 0
  br i1 %72, label %73, label %88

73:                                               ; preds = %61
  br label %74

74:                                               ; preds = %73
  br label %75

75:                                               ; preds = %74
  br label %76

76:                                               ; preds = %75
  %77 = load i64, ptr @H5E_CONTEXT_g, align 8
  %78 = load i64, ptr @H5E_CANTGET_g, align 8
  %79 = call i32 (ptr, ptr, i32, i64, i64, ptr, ...) @H5E_printf_stack(ptr noundef @.str, ptr noundef @__func__.H5CX_get_vds_prefix, i32 noundef 2886, i64 noundef %77, i64 noundef %78, ptr noundef @.str.79)
  br label %80

80:                                               ; preds = %76
  store i8 1, ptr %5, align 1
  %81 = load i8, ptr %5, align 1
  %82 = trunc i8 %81 to i1
  %83 = zext i1 %82 to i8
  store i8 %83, ptr %5, align 1
  br label %84

84:                                               ; preds = %80
  br label %85

85:                                               ; preds = %84
  store i32 -1, ptr %4, align 4
  br label %101

86:                                               ; No predecessors!
  br label %87

87:                                               ; preds = %86
  br label %88

88:                                               ; preds = %87, %61
  br label %89

89:                                               ; preds = %88, %20
  %90 = load ptr, ptr %3, align 8
  %91 = load ptr, ptr %90, align 8
  %92 = getelementptr inbounds %struct.H5CX_node_t, ptr %91, i32 0, i32 0
  %93 = getelementptr inbounds %struct.H5CX_t, ptr %92, i32 0, i32 59
  store i8 1, ptr %93, align 8
  br label %94

94:                                               ; preds = %89, %1
  %95 = load ptr, ptr %3, align 8
  %96 = load ptr, ptr %95, align 8
  %97 = getelementptr inbounds %struct.H5CX_node_t, ptr %96, i32 0, i32 0
  %98 = getelementptr inbounds %struct.H5CX_t, ptr %97, i32 0, i32 58
  %99 = load ptr, ptr %98, align 8
  %100 = load ptr, ptr %2, align 8
  store ptr %99, ptr %100, align 8
  br label %101

101:                                              ; preds = %94, %85, %57
  %102 = load i32, ptr %4, align 4
  ret i32 %102
}